target datalayout = "e-m:e-p270:32:32-p271:32:32-p272:64:64-i64:64-i128:128-f80:128-n8:16:32:64-S128"
target triple = "x86_64-pc-linux-gnu"

%struct.H5T_t = type { %struct.H5O_shared_t, ptr, %struct.H5O_loc_t, %struct.H5G_name_t, ptr }
%struct.H5O_shared_t = type { i32, ptr, i32, %union.anon.0 }
%union.anon.0 = type { %struct.H5O_mesg_loc_t }
%struct.H5O_mesg_loc_t = type { i32, i64 }
%struct.H5O_loc_t = type { ptr, i64, i8 }
%struct.H5G_name_t = type { ptr, ptr, i32 }
%struct.H5T_shared_t = type { i64, i32, i32, i64, i32, i8, ptr, ptr, %union.anon.1 }
%union.anon.1 = type { %struct.H5T_array_t }
%struct.H5T_array_t = type { i64, i32, [32 x i64] }
%struct.H5T_atomic_t = type { i32, i64, i64, i32, i32, %union.anon.2 }
%union.anon.2 = type { %struct.anon.3 }
%struct.anon.3 = type { i64, i64, i64, i64, i64, i64, i32, i32 }

@H5T_init_g = external global i8, align 1
@H5_libterm_g = external global i8, align 1

; Function Attrs: nounwind uwtable
define i32 @H5T__reverse_order(ptr noundef %0, ptr noundef %1, ptr noundef %2) #0 {
  %4 = alloca ptr, align 8
  %5 = alloca ptr, align 8
  %6 = alloca ptr, align 8
  %7 = alloca i32, align 4
  %8 = alloca i64, align 8
  %9 = alloca i64, align 8
  %10 = alloca i64, align 8
  %11 = alloca i64, align 8
  %12 = alloca i64, align 8
  %13 = alloca i64, align 8
  %14 = alloca i64, align 8
  store ptr %0, ptr %4, align 8, !tbaa !36
  store ptr %1, ptr %5, align 8, !tbaa !36
  store ptr %2, ptr %6, align 8, !tbaa !3
  call void @llvm.lifetime.start.p0(i64 4, ptr %7) #4
  call void @llvm.lifetime.start.p0(i64 8, ptr %8) #4
  %15 = load i8, ptr @H5T_init_g, align 1, !tbaa !13, !range !15, !noundef !16
  %16 = trunc i8 %15 to i1
  br i1 %16, label %21, label %17

17:                                               ; preds = %3
  %18 = load i8, ptr @H5_libterm_g, align 1, !tbaa !13, !range !15, !noundef !16
  %19 = trunc i8 %18 to i1
  %20 = xor i1 %19, true
  br label %21

21:                                               ; preds = %17, %3
  %22 = phi i1 [ true, %3 ], [ %20, %17 ]
  %23 = xor i1 %22, true
  %24 = xor i1 %23, true
  %25 = zext i1 %24 to i32
  %26 = sext i32 %25 to i64
  %27 = call i64 @llvm.expect.i64(i64 %26, i64 1)
  %28 = icmp ne i64 %27, 0
  br i1 %28, label %29, label %279

29:                                               ; preds = %21
  %30 = load ptr, ptr %6, align 8, !tbaa !3
  %31 = getelementptr inbounds nuw %struct.H5T_t, ptr %30, i32 0, i32 1
  %32 = load ptr, ptr %31, align 8, !tbaa !24
  %33 = getelementptr inbounds nuw %struct.H5T_shared_t, ptr %32, i32 0, i32 3
  %34 = load i64, ptr %33, align 8, !tbaa !38
  store i64 %34, ptr %8, align 8, !tbaa !17
  %35 = load ptr, ptr %6, align 8, !tbaa !3
  %36 = getelementptr inbounds nuw %struct.H5T_t, ptr %35, i32 0, i32 1
  %37 = load ptr, ptr %36, align 8, !tbaa !24
  %38 = getelementptr inbounds nuw %struct.H5T_shared_t, ptr %37, i32 0, i32 2
  %39 = load i32, ptr %38, align 4, !tbaa !33
  %40 = icmp eq i32 %39, 6
  br i1 %40, label %90, label %41

41:                                               ; preds = %29
  %42 = load ptr, ptr %6, align 8, !tbaa !3
  %43 = getelementptr inbounds nuw %struct.H5T_t, ptr %42, i32 0, i32 1
  %44 = load ptr, ptr %43, align 8, !tbaa !24
  %45 = getelementptr inbounds nuw %struct.H5T_shared_t, ptr %44, i32 0, i32 2
  %46 = load i32, ptr %45, align 4, !tbaa !33
  %47 = icmp eq i32 %46, 8
  br i1 %47, label %90, label %48

48:                                               ; preds = %41
  %49 = load ptr, ptr %6, align 8, !tbaa !3
  %50 = getelementptr inbounds nuw %struct.H5T_t, ptr %49, i32 0, i32 1
  %51 = load ptr, ptr %50, align 8, !tbaa !24
  %52 = getelementptr inbounds nuw %struct.H5T_shared_t, ptr %51, i32 0, i32 2
  %53 = load i32, ptr %52, align 4, !tbaa !33
  %54 = icmp eq i32 %53, 9
  br i1 %54, label %90, label %55

55:                                               ; preds = %48
  %56 = load ptr, ptr %6, align 8, !tbaa !3
  %57 = getelementptr inbounds nuw %struct.H5T_t, ptr %56, i32 0, i32 1
  %58 = load ptr, ptr %57, align 8, !tbaa !24
  %59 = getelementptr inbounds nuw %struct.H5T_shared_t, ptr %58, i32 0, i32 2
  %60 = load i32, ptr %59, align 4, !tbaa !33
  %61 = icmp eq i32 %60, 10
  br i1 %61, label %90, label %62

62:                                               ; preds = %55
  %63 = load ptr, ptr %6, align 8, !tbaa !3
  %64 = getelementptr inbounds nuw %struct.H5T_t, ptr %63, i32 0, i32 1
  %65 = load ptr, ptr %64, align 8, !tbaa !24
  %66 = getelementptr inbounds nuw %struct.H5T_shared_t, ptr %65, i32 0, i32 2
  %67 = load i32, ptr %66, align 4, !tbaa !33
  %68 = icmp eq i32 %67, 7
  br i1 %68, label %90, label %69

69:                                               ; preds = %62
  %70 = load ptr, ptr %6, align 8, !tbaa !3
  %71 = getelementptr inbounds nuw %struct.H5T_t, ptr %70, i32 0, i32 1
  %72 = load ptr, ptr %71, align 8, !tbaa !24
  %73 = getelementptr inbounds nuw %struct.H5T_shared_t, ptr %72, i32 0, i32 2
  %74 = load i32, ptr %73, align 4, !tbaa !33
  %75 = icmp eq i32 %74, 11
  br i1 %75, label %90, label %76

76:                                               ; preds = %69
  %77 = load ptr, ptr %6, align 8, !tbaa !3
  %78 = getelementptr inbounds nuw %struct.H5T_t, ptr %77, i32 0, i32 1
  %79 = load ptr, ptr %78, align 8, !tbaa !24
  %80 = getelementptr inbounds nuw %struct.H5T_shared_t, ptr %79, i32 0, i32 2
  %81 = load i32, ptr %80, align 4, !tbaa !33
  %82 = icmp eq i32 %81, 5
  br i1 %82, label %90, label %83

83:                                               ; preds = %76
  %84 = load ptr, ptr %6, align 8, !tbaa !3
  %85 = getelementptr inbounds nuw %struct.H5T_t, ptr %84, i32 0, i32 1
  %86 = load ptr, ptr %85, align 8, !tbaa !24
  %87 = getelementptr inbounds nuw %struct.H5T_shared_t, ptr %86, i32 0, i32 8
  %88 = getelementptr inbounds nuw %struct.H5T_atomic_t, ptr %87, i32 0, i32 0
  %89 = load i32, ptr %88, align 8, !tbaa !21
  store i32 %89, ptr %7, align 4, !tbaa !11
  br label %101

90:                                               ; preds = %76, %69, %62, %55, %48, %41, %29
  %91 = load ptr, ptr %6, align 8, !tbaa !3
  %92 = getelementptr inbounds nuw %struct.H5T_t, ptr %91, i32 0, i32 1
  %93 = load ptr, ptr %92, align 8, !tbaa !24
  %94 = getelementptr inbounds nuw %struct.H5T_shared_t, ptr %93, i32 0, i32 6
  %95 = load ptr, ptr %94, align 8, !tbaa !39
  %96 = getelementptr inbounds nuw %struct.H5T_t, ptr %95, i32 0, i32 1
  %97 = load ptr, ptr %96, align 8, !tbaa !24
  %98 = getelementptr inbounds nuw %struct.H5T_shared_t, ptr %97, i32 0, i32 8
  %99 = getelementptr inbounds nuw %struct.H5T_atomic_t, ptr %98, i32 0, i32 0
  %100 = load i32, ptr %99, align 8, !tbaa !21
  store i32 %100, ptr %7, align 4, !tbaa !11
  br label %101

101:                                              ; preds = %90, %83
  %102 = load i32, ptr %7, align 4, !tbaa !11
  %103 = icmp eq i32 2, %102
  br i1 %103, label %104, label %136

104:                                              ; preds = %101
  call void @llvm.lifetime.start.p0(i64 8, ptr %9) #4
  store i64 0, ptr %9, align 8, !tbaa !17
  br label %105

105:                                              ; preds = %132, %104
  %106 = load i64, ptr %9, align 8, !tbaa !17
  %107 = load i64, ptr %8, align 8, !tbaa !17
  %108 = icmp ult i64 %106, %107
  br i1 %108, label %110, label %109

109:                                              ; preds = %105
  call void @llvm.lifetime.end.p0(i64 8, ptr %9) #4
  br label %135

110:                                              ; preds = %105
  %111 = load ptr, ptr %5, align 8, !tbaa !36
  %112 = load i64, ptr %8, align 8, !tbaa !17
  %113 = sub i64 %112, 2
  %114 = load i64, ptr %9, align 8, !tbaa !17
  %115 = sub i64 %113, %114
  %116 = getelementptr inbounds nuw i8, ptr %111, i64 %115
  %117 = load i8, ptr %116, align 1, !tbaa !21
  %118 = load ptr, ptr %4, align 8, !tbaa !36
  %119 = load i64, ptr %9, align 8, !tbaa !17
  %120 = getelementptr inbounds nuw i8, ptr %118, i64 %119
  store i8 %117, ptr %120, align 1, !tbaa !21
  %121 = load ptr, ptr %5, align 8, !tbaa !36
  %122 = load i64, ptr %8, align 8, !tbaa !17
  %123 = sub i64 %122, 1
  %124 = load i64, ptr %9, align 8, !tbaa !17
  %125 = sub i64 %123, %124
  %126 = getelementptr inbounds nuw i8, ptr %121, i64 %125
  %127 = load i8, ptr %126, align 1, !tbaa !21
  %128 = load ptr, ptr %4, align 8, !tbaa !36
  %129 = load i64, ptr %9, align 8, !tbaa !17
  %130 = add i64 %129, 1
  %131 = getelementptr inbounds nuw i8, ptr %128, i64 %130
  store i8 %127, ptr %131, align 1, !tbaa !21
  br label %132

132:                                              ; preds = %110
  %133 = load i64, ptr %9, align 8, !tbaa !17
  %134 = add i64 %133, 2
  store i64 %134, ptr %9, align 8, !tbaa !17
  br label %105, !llvm.loop !40

135:                                              ; preds = %109
  br label %278

136:                                              ; preds = %101
  %137 = load i32, ptr %7, align 4, !tbaa !11
  %138 = icmp eq i32 1, %137
  br i1 %138, label %139, label %259

139:                                              ; preds = %136
  %140 = load ptr, ptr %6, align 8, !tbaa !3
  %141 = getelementptr inbounds nuw %struct.H5T_t, ptr %140, i32 0, i32 1
  %142 = load ptr, ptr %141, align 8, !tbaa !24
  %143 = getelementptr inbounds nuw %struct.H5T_shared_t, ptr %142, i32 0, i32 2
  %144 = load i32, ptr %143, align 4, !tbaa !33
  %145 = icmp eq i32 %144, 6
  br i1 %145, label %209, label %146

146:                                              ; preds = %139
  %147 = load ptr, ptr %6, align 8, !tbaa !3
  %148 = getelementptr inbounds nuw %struct.H5T_t, ptr %147, i32 0, i32 1
  %149 = load ptr, ptr %148, align 8, !tbaa !24
  %150 = getelementptr inbounds nuw %struct.H5T_shared_t, ptr %149, i32 0, i32 2
  %151 = load i32, ptr %150, align 4, !tbaa !33
  %152 = icmp eq i32 %151, 8
  br i1 %152, label %209, label %153

153:                                              ; preds = %146
  %154 = load ptr, ptr %6, align 8, !tbaa !3
  %155 = getelementptr inbounds nuw %struct.H5T_t, ptr %154, i32 0, i32 1
  %156 = load ptr, ptr %155, align 8, !tbaa !24
  %157 = getelementptr inbounds nuw %struct.H5T_shared_t, ptr %156, i32 0, i32 2
  %158 = load i32, ptr %157, align 4, !tbaa !33
  %159 = icmp eq i32 %158, 9
  br i1 %159, label %209, label %160

160:                                              ; preds = %153
  %161 = load ptr, ptr %6, align 8, !tbaa !3
  %162 = getelementptr inbounds nuw %struct.H5T_t, ptr %161, i32 0, i32 1
  %163 = load ptr, ptr %162, align 8, !tbaa !24
  %164 = getelementptr inbounds nuw %struct.H5T_shared_t, ptr %163, i32 0, i32 2
  %165 = load i32, ptr %164, align 4, !tbaa !33
  %166 = icmp eq i32 %165, 10
  br i1 %166, label %209, label %167

167:                                              ; preds = %160
  %168 = load ptr, ptr %6, align 8, !tbaa !3
  %169 = getelementptr inbounds nuw %struct.H5T_t, ptr %168, i32 0, i32 1
  %170 = load ptr, ptr %169, align 8, !tbaa !24
  %171 = getelementptr inbounds nuw %struct.H5T_shared_t, ptr %170, i32 0, i32 2
  %172 = load i32, ptr %171, align 4, !tbaa !33
  %173 = icmp eq i32 %172, 7
  br i1 %173, label %209, label %174

174:                                              ; preds = %167
  %175 = load ptr, ptr %6, align 8, !tbaa !3
  %176 = getelementptr inbounds nuw %struct.H5T_t, ptr %175, i32 0, i32 1
  %177 = load ptr, ptr %176, align 8, !tbaa !24
  %178 = getelementptr inbounds nuw %struct.H5T_shared_t, ptr %177, i32 0, i32 2
  %179 = load i32, ptr %178, align 4, !tbaa !33
  %180 = icmp eq i32 %179, 11
  br i1 %180, label %209, label %181

181:                                              ; preds = %174
  %182 = load ptr, ptr %6, align 8, !tbaa !3
  %183 = getelementptr inbounds nuw %struct.H5T_t, ptr %182, i32 0, i32 1
  %184 = load ptr, ptr %183, align 8, !tbaa !24
  %185 = getelementptr inbounds nuw %struct.H5T_shared_t, ptr %184, i32 0, i32 2
  %186 = load i32, ptr %185, align 4, !tbaa !33
  %187 = icmp eq i32 %186, 5
  br i1 %187, label %209, label %188

188:                                              ; preds = %181
  call void @llvm.lifetime.start.p0(i64 8, ptr %10) #4
  store i64 0, ptr %10, align 8, !tbaa !17
  br label %189

189:                                              ; preds = %205, %188
  %190 = load i64, ptr %10, align 8, !tbaa !17
  %191 = load i64, ptr %8, align 8, !tbaa !17
  %192 = icmp ult i64 %190, %191
  br i1 %192, label %194, label %193

193:                                              ; preds = %189
  call void @llvm.lifetime.end.p0(i64 8, ptr %10) #4
  br label %208

194:                                              ; preds = %189
  %195 = load ptr, ptr %5, align 8, !tbaa !36
  %196 = load i64, ptr %10, align 8, !tbaa !17
  %197 = getelementptr inbounds nuw i8, ptr %195, i64 %196
  %198 = load i8, ptr %197, align 1, !tbaa !21
  %199 = load ptr, ptr %4, align 8, !tbaa !36
  %200 = load i64, ptr %8, align 8, !tbaa !17
  %201 = load i64, ptr %10, align 8, !tbaa !17
  %202 = add i64 %201, 1
  %203 = sub i64 %200, %202
  %204 = getelementptr inbounds nuw i8, ptr %199, i64 %203
  store i8 %198, ptr %204, align 1, !tbaa !21
  br label %205

205:                                              ; preds = %194
  %206 = load i64, ptr %10, align 8, !tbaa !17
  %207 = add i64 %206, 1
  store i64 %207, ptr %10, align 8, !tbaa !17
  br label %189, !llvm.loop !42

208:                                              ; preds = %193
  br label %258

209:                                              ; preds = %181, %174, %167, %160, %153, %146, %139
  call void @llvm.lifetime.start.p0(i64 8, ptr %11) #4
  %210 = load i64, ptr %8, align 8, !tbaa !17
  %211 = udiv i64 %210, 2
  store i64 %211, ptr %11, align 8, !tbaa !17
  call void @llvm.lifetime.start.p0(i64 8, ptr %12) #4
  store i64 0, ptr %12, align 8, !tbaa !17
  br label %212

212:                                              ; preds = %228, %209
  %213 = load i64, ptr %12, align 8, !tbaa !17
  %214 = load i64, ptr %11, align 8, !tbaa !17
  %215 = icmp ult i64 %213, %214
  br i1 %215, label %217, label %216

216:                                              ; preds = %212
  call void @llvm.lifetime.end.p0(i64 8, ptr %12) #4
  br label %231

217:                                              ; preds = %212
  %218 = load ptr, ptr %5, align 8, !tbaa !36
  %219 = load i64, ptr %12, align 8, !tbaa !17
  %220 = getelementptr inbounds nuw i8, ptr %218, i64 %219
  %221 = load i8, ptr %220, align 1, !tbaa !21
  %222 = load ptr, ptr %4, align 8, !tbaa !36
  %223 = load i64, ptr %11, align 8, !tbaa !17
  %224 = load i64, ptr %12, align 8, !tbaa !17
  %225 = add i64 %224, 1
  %226 = sub i64 %223, %225
  %227 = getelementptr inbounds nuw i8, ptr %222, i64 %226
  store i8 %221, ptr %227, align 1, !tbaa !21
  br label %228

228:                                              ; preds = %217
  %229 = load i64, ptr %12, align 8, !tbaa !17
  %230 = add i64 %229, 1
  store i64 %230, ptr %12, align 8, !tbaa !17
  br label %212, !llvm.loop !43

231:                                              ; preds = %216
  %232 = load i64, ptr %11, align 8, !tbaa !17
  %233 = load ptr, ptr %4, align 8, !tbaa !36
  %234 = getelementptr inbounds nuw i8, ptr %233, i64 %232
  store ptr %234, ptr %4, align 8, !tbaa !36
  %235 = load i64, ptr %11, align 8, !tbaa !17
  %236 = load ptr, ptr %5, align 8, !tbaa !36
  %237 = getelementptr inbounds nuw i8, ptr %236, i64 %235
  store ptr %237, ptr %5, align 8, !tbaa !36
  call void @llvm.lifetime.start.p0(i64 8, ptr %13) #4
  store i64 0, ptr %13, align 8, !tbaa !17
  br label %238

238:                                              ; preds = %254, %231
  %239 = load i64, ptr %13, align 8, !tbaa !17
  %240 = load i64, ptr %11, align 8, !tbaa !17
  %241 = icmp ult i64 %239, %240
  br i1 %241, label %243, label %242

242:                                              ; preds = %238
  call void @llvm.lifetime.end.p0(i64 8, ptr %13) #4
  br label %257

243:                                              ; preds = %238
  %244 = load ptr, ptr %5, align 8, !tbaa !36
  %245 = load i64, ptr %13, align 8, !tbaa !17
  %246 = getelementptr inbounds nuw i8, ptr %244, i64 %245
  %247 = load i8, ptr %246, align 1, !tbaa !21
  %248 = load ptr, ptr %4, align 8, !tbaa !36
  %249 = load i64, ptr %11, align 8, !tbaa !17
  %250 = load i64, ptr %13, align 8, !tbaa !17
  %251 = add i64 %250, 1
  %252 = sub i64 %249, %251
  %253 = getelementptr inbounds nuw i8, ptr %248, i64 %252
  store i8 %247, ptr %253, align 1, !tbaa !21
  br label %254

254:                                              ; preds = %243
  %255 = load i64, ptr %13, align 8, !tbaa !17
  %256 = add i64 %255, 1
  store i64 %256, ptr %13, align 8, !tbaa !17
  br label %238, !llvm.loop !44

257:                                              ; preds = %242
  call void @llvm.lifetime.end.p0(i64 8, ptr %11) #4
  br label %258

258:                                              ; preds = %257, %208
  br label %277

259:                                              ; preds = %136
  call void @llvm.lifetime.start.p0(i64 8, ptr %14) #4
  store i64 0, ptr %14, align 8, !tbaa !17
  br label %260

260:                                              ; preds = %273, %259
  %261 = load i64, ptr %14, align 8, !tbaa !17
  %262 = load i64, ptr %8, align 8, !tbaa !17
  %263 = icmp ult i64 %261, %262
  br i1 %263, label %265, label %264

264:                                              ; preds = %260
  call void @llvm.lifetime.end.p0(i64 8, ptr %14) #4
  br label %276

265:                                              ; preds = %260
  %266 = load ptr, ptr %5, align 8, !tbaa !36
  %267 = load i64, ptr %14, align 8, !tbaa !17
  %268 = getelementptr inbounds nuw i8, ptr %266, i64 %267
  %269 = load i8, ptr %268, align 1, !tbaa !21
  %270 = load ptr, ptr %4, align 8, !tbaa !36
  %271 = load i64, ptr %14, align 8, !tbaa !17
  %272 = getelementptr inbounds nuw i8, ptr %270, i64 %271
  store i8 %269, ptr %272, align 1, !tbaa !21
  br label %273

273:                                              ; preds = %265
  %274 = load i64, ptr %14, align 8, !tbaa !17
  %275 = add i64 %274, 1
  store i64 %275, ptr %14, align 8, !tbaa !17
  br label %260, !llvm.loop !45

276:                                              ; preds = %264
  br label %277

277:                                              ; preds = %276, %258
  br label %278

278:                                              ; preds = %277, %135
  br label %279

279:                                              ; preds = %278, %21
  call void @llvm.lifetime.end.p0(i64 8, ptr %8) #4
  call void @llvm.lifetime.end.p0(i64 4, ptr %7) #4
  ret i32 0
}