; Function Attrs: nofree norecurse nosync nounwind memory(read, argmem: readwrite, inaccessiblemem: none) uwtable
define noundef i32 @H5T__reverse_order(ptr noundef writeonly captures(none) %0, ptr noundef readonly captures(none) %1, ptr noundef readonly captures(none) %2) local_unnamed_addr #4 {
  %4 = load i8, ptr @H5T_init_g, align 1, !tbaa !3, !range !7, !noundef !8
  %5 = trunc nuw i8 %4 to i1
  %6 = load i8, ptr @H5_libterm_g, align 1, !range !7
  %7 = trunc nuw i8 %6 to i1
  %8 = xor i1 %7, true
  %9 = select i1 %5, i1 true, i1 %8
  br i1 %9, label %10, label %.loopexit, !prof !9

10:                                               ; preds = %3
  %11 = getelementptr inbounds nuw i8, ptr %2, i64 40
  %12 = load ptr, ptr %11, align 8, !tbaa !16
  %13 = getelementptr inbounds nuw i8, ptr %12, i64 16
  %14 = load i64, ptr %13, align 8, !tbaa !30
  %15 = getelementptr inbounds nuw i8, ptr %12, i64 12
  %16 = load i32, ptr %15, align 4, !tbaa !26
  %.off = add i32 %16, -5
  %switch = icmp ult i32 %.off, 7
  br i1 %switch, label %17, label %22

17:                                               ; preds = %10
  %18 = getelementptr inbounds nuw i8, ptr %12, i64 32
  %19 = load ptr, ptr %18, align 8, !tbaa !31
  %20 = getelementptr inbounds nuw i8, ptr %19, i64 40
  %21 = load ptr, ptr %20, align 8, !tbaa !16
  br label %22

22:                                               ; preds = %10, %17
  %.pn = phi ptr [ %21, %17 ], [ %12, %10 ]
  %.071.in = getelementptr inbounds nuw i8, ptr %.pn, i64 48
  %.071 = load i32, ptr %.071.in, align 8, !tbaa !15
  switch i32 %.071, label %.preheader [
    i32 2, label %.preheader79
    i32 1, label %37
  ]

.preheader79:                                     ; preds = %22
  %.not96 = icmp eq i64 %14, 0
  br i1 %.not96, label %.loopexit, label %.lr.ph91

.lr.ph91:                                         ; preds = %.preheader79
  %23 = add i64 %14, -2
  %24 = getelementptr i8, ptr %1, i64 %14
  br label %25

.preheader:                                       ; preds = %22
  %.not97 = icmp eq i64 %14, 0
  br i1 %.not97, label %.loopexit, label %.lr.ph93

25:                                               ; preds = %.lr.ph91, %25
  %.07090 = phi i64 [ 0, %.lr.ph91 ], [ %35, %25 ]
  %26 = sub i64 %23, %.07090
  %27 = getelementptr inbounds nuw i8, ptr %1, i64 %26
  %28 = load i8, ptr %27, align 1, !tbaa !15
  %29 = getelementptr inbounds nuw i8, ptr %0, i64 %.07090
  store i8 %28, ptr %29, align 1, !tbaa !15
  %30 = xor i64 %.07090, -1
  %31 = getelementptr i8, ptr %24, i64 %30
  %32 = load i8, ptr %31, align 1, !tbaa !15
  %33 = or disjoint i64 %.07090, 1
  %34 = getelementptr inbounds nuw i8, ptr %0, i64 %33
  store i8 %32, ptr %34, align 1, !tbaa !15
  %35 = add nuw i64 %.07090, 2
  %36 = icmp ult i64 %35, %14
  br i1 %36, label %25, label %.loopexit, !llvm.loop !32

37:                                               ; preds = %22
  br i1 %switch, label %43, label %.preheader82

.preheader82:                                     ; preds = %37
  %.not = icmp eq i64 %14, 0
  br i1 %.not, label %.loopexit, label %.lr.ph

.lr.ph:                                           ; preds = %.preheader82, %.lr.ph
  %.06984 = phi i64 [ %40, %.lr.ph ], [ 0, %.preheader82 ]
  %38 = getelementptr inbounds nuw i8, ptr %1, i64 %.06984
  %39 = load i8, ptr %38, align 1, !tbaa !15
  %40 = add nuw i64 %.06984, 1
  %41 = sub i64 %14, %40
  %42 = getelementptr inbounds nuw i8, ptr %0, i64 %41
  store i8 %39, ptr %42, align 1, !tbaa !15
  %exitcond.not = icmp eq i64 %40, %14
  br i1 %exitcond.not, label %.loopexit, label %.lr.ph, !llvm.loop !34

43:                                               ; preds = %37
  %44 = lshr i64 %14, 1
  %.not94 = icmp ult i64 %14, 2
  br i1 %.not94, label %.loopexit, label %.lr.ph86

._crit_edge:                                      ; preds = %.lr.ph86
  %45 = getelementptr inbounds nuw i8, ptr %0, i64 %44
  %46 = getelementptr inbounds nuw i8, ptr %1, i64 %44
  br label %.lr.ph89

.lr.ph86:                                         ; preds = %43, %.lr.ph86
  %.06885 = phi i64 [ %49, %.lr.ph86 ], [ 0, %43 ]
  %47 = getelementptr inbounds nuw i8, ptr %1, i64 %.06885
  %48 = load i8, ptr %47, align 1, !tbaa !15
  %49 = add nuw nsw i64 %.06885, 1
  %50 = sub nsw i64 %44, %49
  %51 = getelementptr inbounds nuw i8, ptr %0, i64 %50
  store i8 %48, ptr %51, align 1, !tbaa !15
  %exitcond101.not = icmp eq i64 %49, %44
  br i1 %exitcond101.not, label %._crit_edge, label %.lr.ph86, !llvm.loop !35

.lr.ph89:                                         ; preds = %._crit_edge, %.lr.ph89
  %.06787 = phi i64 [ %54, %.lr.ph89 ], [ 0, %._crit_edge ]
  %52 = getelementptr inbounds nuw i8, ptr %46, i64 %.06787
  %53 = load i8, ptr %52, align 1, !tbaa !15
  %54 = add nuw nsw i64 %.06787, 1
  %55 = sub nsw i64 %44, %54
  %56 = getelementptr inbounds nuw i8, ptr %45, i64 %55
  store i8 %53, ptr %56, align 1, !tbaa !15
  %exitcond102.not = icmp eq i64 %54, %44
  br i1 %exitcond102.not, label %.loopexit, label %.lr.ph89, !llvm.loop !36

.lr.ph93:                                         ; preds = %.preheader, %.lr.ph93
  %.092 = phi i64 [ %60, %.lr.ph93 ], [ 0, %.preheader ]
  %57 = getelementptr inbounds nuw i8, ptr %1, i64 %.092
  %58 = load i8, ptr %57, align 1, !tbaa !15
  %59 = getelementptr inbounds nuw i8, ptr %0, i64 %.092
  store i8 %58, ptr %59, align 1, !tbaa !15
  %60 = add nuw i64 %.092, 1
  %exitcond103.not = icmp eq i64 %60, %14
  br i1 %exitcond103.not, label %.loopexit, label %.lr.ph93, !llvm.loop !37

.loopexit:                                        ; preds = %.lr.ph, %.lr.ph89, %25, %.lr.ph93, %43, %.preheader82, %.preheader79, %.preheader, %3
  ret i32 0
}